target datalayout = "e-m:e-p270:32:32-p271:32:32-p272:64:64-i64:64-i128:128-f80:128-n8:16:32:64-S128"
target triple = "x86_64-pc-linux-gnu"

; Function Attrs: nounwind uwtable
define void @Abc_SortMerge(ptr noundef %0, ptr noundef %1, ptr noundef %2, ptr noundef %3, ptr noundef %4) #0 {
  %6 = alloca ptr, align 8
  %7 = alloca ptr, align 8
  %8 = alloca ptr, align 8
  %9 = alloca ptr, align 8
  %10 = alloca ptr, align 8
  %11 = alloca i32, align 4
  %12 = alloca ptr, align 8
  store ptr %0, ptr %6, align 8
  store ptr %1, ptr %7, align 8
  store ptr %2, ptr %8, align 8
  store ptr %3, ptr %9, align 8
  store ptr %4, ptr %10, align 8
  %13 = load ptr, ptr %7, align 8
  %14 = load ptr, ptr %6, align 8
  %15 = ptrtoint ptr %13 to i64
  %16 = ptrtoint ptr %14 to i64
  %17 = sub i64 %15, %16
  %18 = sdiv exact i64 %17, 4
  %19 = load ptr, ptr %9, align 8
  %20 = load ptr, ptr %8, align 8
  %21 = ptrtoint ptr %19 to i64
  %22 = ptrtoint ptr %20 to i64
  %23 = sub i64 %21, %22
  %24 = sdiv exact i64 %23, 4
  %25 = add nsw i64 %18, %24
  %26 = trunc i64 %25 to i32
  store i32 %26, ptr %11, align 4
  %27 = load ptr, ptr %10, align 8
  store ptr %27, ptr %12, align 8
  br label %28

28:                                               ; preds = %74, %5
  %29 = load ptr, ptr %6, align 8
  %30 = load ptr, ptr %7, align 8
  %31 = icmp ult ptr %29, %30
  br i1 %31, label %32, label %36

32:                                               ; preds = %28
  %33 = load ptr, ptr %8, align 8
  %34 = load ptr, ptr %9, align 8
  %35 = icmp ult ptr %33, %34
  br label %36

36:                                               ; preds = %32, %28
  %37 = phi i1 [ false, %28 ], [ %35, %32 ]
  br i1 %37, label %38, label %75

38:                                               ; preds = %36
  %39 = load ptr, ptr %6, align 8
  %40 = load i32, ptr %39, align 4
  %41 = load ptr, ptr %8, align 8
  %42 = load i32, ptr %41, align 4
  %43 = icmp eq i32 %40, %42
  br i1 %43, label %44, label %55

44:                                               ; preds = %38
  %45 = load ptr, ptr %6, align 8
  %46 = getelementptr inbounds i32, ptr %45, i32 1
  store ptr %46, ptr %6, align 8
  %47 = load i32, ptr %45, align 4
  %48 = load ptr, ptr %10, align 8
  %49 = getelementptr inbounds i32, ptr %48, i32 1
  store ptr %49, ptr %10, align 8
  store i32 %47, ptr %48, align 4
  %50 = load ptr, ptr %8, align 8
  %51 = getelementptr inbounds i32, ptr %50, i32 1
  store ptr %51, ptr %8, align 8
  %52 = load i32, ptr %50, align 4
  %53 = load ptr, ptr %10, align 8
  %54 = getelementptr inbounds i32, ptr %53, i32 1
  store ptr %54, ptr %10, align 8
  store i32 %52, ptr %53, align 4
  br label %74

55:                                               ; preds = %38
  %56 = load ptr, ptr %6, align 8
  %57 = load i32, ptr %56, align 4
  %58 = load ptr, ptr %8, align 8
  %59 = load i32, ptr %58, align 4
  %60 = icmp slt i32 %57, %59
  br i1 %60, label %61, label %67

61:                                               ; preds = %55
  %62 = load ptr, ptr %6, align 8
  %63 = getelementptr inbounds i32, ptr %62, i32 1
  store ptr %63, ptr %6, align 8
  %64 = load i32, ptr %62, align 4
  %65 = load ptr, ptr %10, align 8
  %66 = getelementptr inbounds i32, ptr %65, i32 1
  store ptr %66, ptr %10, align 8
  store i32 %64, ptr %65, align 4
  br label %73

67:                                               ; preds = %55
  %68 = load ptr, ptr %8, align 8
  %69 = getelementptr inbounds i32, ptr %68, i32 1
  store ptr %69, ptr %8, align 8
  %70 = load i32, ptr %68, align 4
  %71 = load ptr, ptr %10, align 8
  %72 = getelementptr inbounds i32, ptr %71, i32 1
  store ptr %72, ptr %10, align 8
  store i32 %70, ptr %71, align 4
  br label %73

73:                                               ; preds = %67, %61
  br label %74

74:                                               ; preds = %73, %44
  br label %28, !llvm.loop !4

75:                                               ; preds = %36
  br label %76

76:                                               ; preds = %80, %75
  %77 = load ptr, ptr %6, align 8
  %78 = load ptr, ptr %7, align 8
  %79 = icmp ult ptr %77, %78
  br i1 %79, label %80, label %86

80:                                               ; preds = %76
  %81 = load ptr, ptr %6, align 8
  %82 = getelementptr inbounds i32, ptr %81, i32 1
  store ptr %82, ptr %6, align 8
  %83 = load i32, ptr %81, align 4
  %84 = load ptr, ptr %10, align 8
  %85 = getelementptr inbounds i32, ptr %84, i32 1
  store ptr %85, ptr %10, align 8
  store i32 %83, ptr %84, align 4
  br label %76, !llvm.loop !6

86:                                               ; preds = %76
  br label %87

87:                                               ; preds = %91, %86
  %88 = load ptr, ptr %8, align 8
  %89 = load ptr, ptr %9, align 8
  %90 = icmp ult ptr %88, %89
  br i1 %90, label %91, label %97

91:                                               ; preds = %87
  %92 = load ptr, ptr %8, align 8
  %93 = getelementptr inbounds i32, ptr %92, i32 1
  store ptr %93, ptr %8, align 8
  %94 = load i32, ptr %92, align 4
  %95 = load ptr, ptr %10, align 8
  %96 = getelementptr inbounds i32, ptr %95, i32 1
  store ptr %96, ptr %10, align 8
  store i32 %94, ptr %95, align 4
  br label %87, !llvm.loop !7

97:                                               ; preds = %87
  ret void
}

; Function Attrs: nounwind uwtable
define void @Abc_Sort_rec(ptr noundef %0, ptr noundef %1, ptr noundef %2) #0 {
  %4 = alloca ptr, align 8
  %5 = alloca ptr, align 8
  %6 = alloca ptr, align 8
  %7 = alloca i32, align 4
  %8 = alloca i32, align 4
  %9 = alloca i32, align 4
  %10 = alloca i32, align 4
  %11 = alloca i32, align 4
  store ptr %0, ptr %4, align 8
  store ptr %1, ptr %5, align 8
  store ptr %2, ptr %6, align 8
  %12 = load ptr, ptr %5, align 8
  %13 = load ptr, ptr %4, align 8
  %14 = ptrtoint ptr %12 to i64
  %15 = ptrtoint ptr %13 to i64
  %16 = sub i64 %14, %15
  %17 = sdiv exact i64 %16, 4
  %18 = trunc i64 %17 to i32
  store i32 %18, ptr %7, align 4
  %19 = load i32, ptr %7, align 4
  %20 = icmp eq i32 %19, 1
  br i1 %20, label %21, label %22

21:                                               ; preds = %3
  br label %153

22:                                               ; preds = %3
  %23 = load i32, ptr %7, align 4
  %24 = icmp eq i32 %23, 2
  br i1 %24, label %25, label %56

25:                                               ; preds = %22
  %26 = load ptr, ptr %4, align 8
  %27 = getelementptr inbounds i32, ptr %26, i64 0
  %28 = load i32, ptr %27, align 4
  %29 = load ptr, ptr %4, align 8
  %30 = getelementptr inbounds i32, ptr %29, i64 1
  %31 = load i32, ptr %30, align 4
  %32 = icmp sgt i32 %28, %31
  br i1 %32, label %33, label %55

33:                                               ; preds = %25
  %34 = load ptr, ptr %4, align 8
  %35 = getelementptr inbounds i32, ptr %34, i64 1
  %36 = load i32, ptr %35, align 4
  %37 = load ptr, ptr %4, align 8
  %38 = getelementptr inbounds i32, ptr %37, i64 0
  %39 = load i32, ptr %38, align 4
  %40 = xor i32 %39, %36
  store i32 %40, ptr %38, align 4
  %41 = load ptr, ptr %4, align 8
  %42 = getelementptr inbounds i32, ptr %41, i64 0
  %43 = load i32, ptr %42, align 4
  %44 = load ptr, ptr %4, align 8
  %45 = getelementptr inbounds i32, ptr %44, i64 1
  %46 = load i32, ptr %45, align 4
  %47 = xor i32 %46, %43
  store i32 %47, ptr %45, align 4
  %48 = load ptr, ptr %4, align 8
  %49 = getelementptr inbounds i32, ptr %48, i64 1
  %50 = load i32, ptr %49, align 4
  %51 = load ptr, ptr %4, align 8
  %52 = getelementptr inbounds i32, ptr %51, i64 0
  %53 = load i32, ptr %52, align 4
  %54 = xor i32 %53, %50
  store i32 %54, ptr %52, align 4
  br label %55

55:                                               ; preds = %33, %25
  br label %153

56:                                               ; preds = %22
  %57 = load i32, ptr %7, align 4
  %58 = icmp slt i32 %57, 8
  br i1 %58, label %59, label %115

59:                                               ; preds = %56
  store i32 0, ptr %9, align 4
  br label %60

60:                                               ; preds = %111, %59
  %61 = load i32, ptr %9, align 4
  %62 = load i32, ptr %7, align 4
  %63 = sub nsw i32 %62, 1
  %64 = icmp slt i32 %61, %63
  br i1 %64, label %65, label %114

65:                                               ; preds = %60
  %66 = load i32, ptr %9, align 4
  store i32 %66, ptr %11, align 4
  %67 = load i32, ptr %9, align 4
  %68 = add nsw i32 %67, 1
  store i32 %68, ptr %10, align 4
  br label %69

69:                                               ; preds = %88, %65
  %70 = load i32, ptr %10, align 4
  %71 = load i32, ptr %7, align 4
  %72 = icmp slt i32 %70, %71
  br i1 %72, label %73, label %91

73:                                               ; preds = %69
  %74 = load ptr, ptr %4, align 8
  %75 = load i32, ptr %10, align 4
  %76 = sext i32 %75 to i64
  %77 = getelementptr inbounds i32, ptr %74, i64 %76
  %78 = load i32, ptr %77, align 4
  %79 = load ptr, ptr %4, align 8
  %80 = load i32, ptr %11, align 4
  %81 = sext i32 %80 to i64
  %82 = getelementptr inbounds i32, ptr %79, i64 %81
  %83 = load i32, ptr %82, align 4
  %84 = icmp slt i32 %78, %83
  br i1 %84, label %85, label %87

85:                                               ; preds = %73
  %86 = load i32, ptr %10, align 4
  store i32 %86, ptr %11, align 4
  br label %87

87:                                               ; preds = %85, %73
  br label %88

88:                                               ; preds = %87
  %89 = load i32, ptr %10, align 4
  %90 = add nsw i32 %89, 1
  store i32 %90, ptr %10, align 4
  br label %69, !llvm.loop !8

91:                                               ; preds = %69
  %92 = load ptr, ptr %4, align 8
  %93 = load i32, ptr %9, align 4
  %94 = sext i32 %93 to i64
  %95 = getelementptr inbounds i32, ptr %92, i64 %94
  %96 = load i32, ptr %95, align 4
  store i32 %96, ptr %8, align 4
  %97 = load ptr, ptr %4, align 8
  %98 = load i32, ptr %11, align 4
  %99 = sext i32 %98 to i64
  %100 = getelementptr inbounds i32, ptr %97, i64 %99
  %101 = load i32, ptr %100, align 4
  %102 = load ptr, ptr %4, align 8
  %103 = load i32, ptr %9, align 4
  %104 = sext i32 %103 to i64
  %105 = getelementptr inbounds i32, ptr %102, i64 %104
  store i32 %101, ptr %105, align 4
  %106 = load i32, ptr %8, align 4
  %107 = load ptr, ptr %4, align 8
  %108 = load i32, ptr %11, align 4
  %109 = sext i32 %108 to i64
  %110 = getelementptr inbounds i32, ptr %107, i64 %109
  store i32 %106, ptr %110, align 4
  br label %111

111:                                              ; preds = %91
  %112 = load i32, ptr %9, align 4
  %113 = add nsw i32 %112, 1
  store i32 %113, ptr %9, align 4
  br label %60, !llvm.loop !9

114:                                              ; preds = %60
  br label %152

115:                                              ; preds = %56
  %116 = load ptr, ptr %4, align 8
  %117 = load ptr, ptr %4, align 8
  %118 = load i32, ptr %7, align 4
  %119 = sdiv i32 %118, 2
  %120 = sext i32 %119 to i64
  %121 = getelementptr inbounds i32, ptr %117, i64 %120
  %122 = load ptr, ptr %6, align 8
  call void @Abc_Sort_rec(ptr noundef %116, ptr noundef %121, ptr noundef %122)
  %123 = load ptr, ptr %4, align 8
  %124 = load i32, ptr %7, align 4
  %125 = sdiv i32 %124, 2
  %126 = sext i32 %125 to i64
  %127 = getelementptr inbounds i32, ptr %123, i64 %126
  %128 = load ptr, ptr %5, align 8
  %129 = load ptr, ptr %6, align 8
  %130 = load i32, ptr %7, align 4
  %131 = sdiv i32 %130, 2
  %132 = sext i32 %131 to i64
  %133 = getelementptr inbounds i32, ptr %129, i64 %132
  call void @Abc_Sort_rec(ptr noundef %127, ptr noundef %128, ptr noundef %133)
  %134 = load ptr, ptr %4, align 8
  %135 = load ptr, ptr %4, align 8
  %136 = load i32, ptr %7, align 4
  %137 = sdiv i32 %136, 2
  %138 = sext i32 %137 to i64
  %139 = getelementptr inbounds i32, ptr %135, i64 %138
  %140 = load ptr, ptr %4, align 8
  %141 = load i32, ptr %7, align 4
  %142 = sdiv i32 %141, 2
  %143 = sext i32 %142 to i64
  %144 = getelementptr inbounds i32, ptr %140, i64 %143
  %145 = load ptr, ptr %5, align 8
  %146 = load ptr, ptr %6, align 8
  call void @Abc_SortMerge(ptr noundef %134, ptr noundef %139, ptr noundef %144, ptr noundef %145, ptr noundef %146)
  %147 = load ptr, ptr %4, align 8
  %148 = load ptr, ptr %6, align 8
  %149 = load i32, ptr %7, align 4
  %150 = sext i32 %149 to i64
  %151 = mul i64 4, %150
  call void @llvm.memcpy.p0.p0.i64(ptr align 4 %147, ptr align 4 %148, i64 %151, i1 false)
  br label %152

152:                                              ; preds = %115, %114
  br label %153

153:                                              ; preds = %152, %55, %21
  ret void
}