; Function Attrs: nofree nosync nounwind memory(argmem: readwrite) uwtable
define void @Abc_Sort_rec(ptr noundef %0, ptr noundef %1, ptr noundef %2) local_unnamed_addr #1 {
  %4 = ptrtoint ptr %1 to i64
  %5 = ptrtoint ptr %0 to i64
  %6 = sub i64 %4, %5
  %7 = lshr exact i64 %6, 2
  %8 = trunc i64 %7 to i32
  switch i32 %8, label %15 [
    i32 1, label %.loopexit
    i32 2, label %9
  ]

9:                                                ; preds = %3
  %10 = load i32, ptr %0, align 4
  %11 = getelementptr inbounds nuw i8, ptr %0, i64 4
  %12 = load i32, ptr %11, align 4
  %13 = icmp sgt i32 %10, %12
  br i1 %13, label %14, label %.loopexit

14:                                               ; preds = %9
  store i32 %10, ptr %11, align 4
  store i32 %12, ptr %0, align 4
  br label %.loopexit

15:                                               ; preds = %3
  %16 = icmp slt i32 %8, 8
  br i1 %16, label %.preheader, label %32

.preheader:                                       ; preds = %15
  %17 = icmp sgt i32 %8, 1
  br i1 %17, label %.lr.ph61.preheader, label %.loopexit

.lr.ph61.preheader:                               ; preds = %.preheader
  %18 = add nuw nsw i64 %7, 4294967295
  %wide.trip.count68 = and i64 %18, 4294967295
  %wide.trip.count = and i64 %7, 2147483647
  br label %.lr.ph.preheader

.lr.ph.preheader:                                 ; preds = %._crit_edge, %.lr.ph61.preheader
  %indvars.iv65 = phi i64 [ 0, %.lr.ph61.preheader ], [ %indvars.iv.next66, %._crit_edge ]
  %indvars.iv = phi i64 [ 1, %.lr.ph61.preheader ], [ %indvars.iv.next, %._crit_edge ]
  %indvars.iv.next66 = add nuw nsw i64 %indvars.iv65, 1
  %19 = trunc nuw nsw i64 %indvars.iv65 to i32
  br label %.lr.ph

.lr.ph:                                           ; preds = %.lr.ph.preheader, %.lr.ph
  %indvars.iv62 = phi i64 [ %indvars.iv, %.lr.ph.preheader ], [ %indvars.iv.next63, %.lr.ph ]
  %.059 = phi i32 [ %19, %.lr.ph.preheader ], [ %spec.select, %.lr.ph ]
  %20 = getelementptr inbounds nuw i32, ptr %0, i64 %indvars.iv62
  %21 = load i32, ptr %20, align 4
  %22 = sext i32 %.059 to i64
  %23 = getelementptr inbounds i32, ptr %0, i64 %22
  %24 = load i32, ptr %23, align 4
  %25 = icmp slt i32 %21, %24
  %26 = trunc nuw nsw i64 %indvars.iv62 to i32
  %spec.select = select i1 %25, i32 %26, i32 %.059
  %indvars.iv.next63 = add nuw nsw i64 %indvars.iv62, 1
  %exitcond.not = icmp eq i64 %indvars.iv.next63, %wide.trip.count
  br i1 %exitcond.not, label %._crit_edge, label %.lr.ph, !llvm.loop !8

._crit_edge:                                      ; preds = %.lr.ph
  %27 = getelementptr inbounds nuw i32, ptr %0, i64 %indvars.iv65
  %28 = load i32, ptr %27, align 4
  %29 = sext i32 %spec.select to i64
  %30 = getelementptr inbounds i32, ptr %0, i64 %29
  %31 = load i32, ptr %30, align 4
  store i32 %31, ptr %27, align 4
  store i32 %28, ptr %30, align 4
  %indvars.iv.next = add nuw nsw i64 %indvars.iv, 1
  %exitcond69.not = icmp eq i64 %indvars.iv.next66, %wide.trip.count68
  br i1 %exitcond69.not, label %.loopexit, label %.lr.ph.preheader, !llvm.loop !9

32:                                               ; preds = %15
  %33 = lshr i64 %6, 3
  %34 = and i64 %33, 2147483647
  %35 = getelementptr inbounds nuw i32, ptr %0, i64 %34
  tail call void @Abc_Sort_rec(ptr noundef %0, ptr noundef %35, ptr noundef %2)
  %36 = getelementptr inbounds nuw i32, ptr %2, i64 %34
  tail call void @Abc_Sort_rec(ptr noundef %35, ptr noundef %1, ptr noundef %36)
  %37 = icmp ne i64 %34, 0
  %38 = icmp ult ptr %35, %1
  %39 = and i1 %37, %38
  br i1 %39, label %.lr.ph.i, label %.preheader38.i

.preheader38.i:                                   ; preds = %56, %32
  %.032.lcssa.i = phi ptr [ %2, %32 ], [ %.133.i, %56 ]
  %.029.lcssa.i = phi ptr [ %35, %32 ], [ %.130.i, %56 ]
  %.0.lcssa.i = phi ptr [ %0, %32 ], [ %.1.i, %56 ]
  %40 = icmp ult ptr %.0.lcssa.i, %35
  br i1 %40, label %.lr.ph46.i, label %.preheader.i

.lr.ph.i:                                         ; preds = %32, %56
  %.041.i = phi ptr [ %.1.i, %56 ], [ %0, %32 ]
  %.02940.i = phi ptr [ %.130.i, %56 ], [ %35, %32 ]
  %.03239.i = phi ptr [ %.133.i, %56 ], [ %2, %32 ]
  %41 = load i32, ptr %.041.i, align 4
  %42 = load i32, ptr %.02940.i, align 4
  %43 = icmp eq i32 %41, %42
  %44 = getelementptr inbounds nuw i8, ptr %.03239.i, i64 4
  br i1 %43, label %45, label %50

45:                                               ; preds = %.lr.ph.i
  %46 = getelementptr inbounds nuw i8, ptr %.041.i, i64 4
  store i32 %41, ptr %.03239.i, align 4
  %47 = getelementptr inbounds nuw i8, ptr %.02940.i, i64 4
  %48 = load i32, ptr %.02940.i, align 4
  %49 = getelementptr inbounds nuw i8, ptr %.03239.i, i64 8
  store i32 %48, ptr %44, align 4
  br label %56

50:                                               ; preds = %.lr.ph.i
  %51 = icmp slt i32 %41, %42
  br i1 %51, label %52, label %54

52:                                               ; preds = %50
  %53 = getelementptr inbounds nuw i8, ptr %.041.i, i64 4
  store i32 %41, ptr %.03239.i, align 4
  br label %56

54:                                               ; preds = %50
  %55 = getelementptr inbounds nuw i8, ptr %.02940.i, i64 4
  store i32 %42, ptr %.03239.i, align 4
  br label %56

56:                                               ; preds = %54, %52, %45
  %.133.i = phi ptr [ %49, %45 ], [ %44, %52 ], [ %44, %54 ]
  %.130.i = phi ptr [ %47, %45 ], [ %.02940.i, %52 ], [ %55, %54 ]
  %.1.i = phi ptr [ %46, %45 ], [ %53, %52 ], [ %.041.i, %54 ]
  %57 = icmp ult ptr %.1.i, %35
  %58 = icmp ult ptr %.130.i, %1
  %59 = select i1 %57, i1 %58, i1 false
  br i1 %59, label %.lr.ph.i, label %.preheader38.i, !llvm.loop !4

.preheader.i:                                     ; preds = %.lr.ph46.i, %.preheader38.i
  %.234.lcssa.i = phi ptr [ %.032.lcssa.i, %.preheader38.i ], [ %63, %.lr.ph46.i ]
  %60 = icmp ult ptr %.029.lcssa.i, %1
  br i1 %60, label %.lr.ph50.i, label %Abc_SortMerge.exit

.lr.ph46.i:                                       ; preds = %.preheader38.i, %.lr.ph46.i
  %.245.i = phi ptr [ %61, %.lr.ph46.i ], [ %.0.lcssa.i, %.preheader38.i ]
  %.23444.i = phi ptr [ %63, %.lr.ph46.i ], [ %.032.lcssa.i, %.preheader38.i ]
  %61 = getelementptr inbounds nuw i8, ptr %.245.i, i64 4
  %62 = load i32, ptr %.245.i, align 4
  %63 = getelementptr inbounds nuw i8, ptr %.23444.i, i64 4
  store i32 %62, ptr %.23444.i, align 4
  %64 = icmp ult ptr %61, %35
  br i1 %64, label %.lr.ph46.i, label %.preheader.i, !llvm.loop !6

.lr.ph50.i:                                       ; preds = %.preheader.i, %.lr.ph50.i
  %.23149.i = phi ptr [ %65, %.lr.ph50.i ], [ %.029.lcssa.i, %.preheader.i ]
  %.348.i = phi ptr [ %67, %.lr.ph50.i ], [ %.234.lcssa.i, %.preheader.i ]
  %65 = getelementptr inbounds nuw i8, ptr %.23149.i, i64 4
  %66 = load i32, ptr %.23149.i, align 4
  %67 = getelementptr inbounds nuw i8, ptr %.348.i, i64 4
  store i32 %66, ptr %.348.i, align 4
  %68 = icmp ult ptr %65, %1
  br i1 %68, label %.lr.ph50.i, label %Abc_SortMerge.exit, !llvm.loop !7

Abc_SortMerge.exit:                               ; preds = %.lr.ph50.i, %.preheader.i
  %69 = and i64 %6, 8589934588
  tail call void @llvm.memcpy.p0.p0.i64(ptr align 4 %0, ptr align 4 %2, i64 %69, i1 false)
  br label %.loopexit

.loopexit:                                        ; preds = %._crit_edge, %.preheader, %3, %Abc_SortMerge.exit, %9, %14
  ret void
}